target datalayout = "e-m:e-p270:32:32-p271:32:32-p272:64:64-i64:64-i128:128-f80:128-n8:16:32:64-S128"
target triple = "x86_64-pc-linux-gnu"

%struct.cbs_st = type { ptr, i64 }

@.str = private unnamed_addr constant [123 x i8] c"generated/home/dtcxzyw/WorkSpace/Projects/compilers/llvm-opt-benchmark/bench/libquic/libquic/boringssl/crypto/x509/pkcs7.c\00", align 1

; Function Attrs: nounwind uwtable
define internal i32 @pkcs7_parse_header(ptr noundef %0, ptr noundef %1, ptr noundef %2) #0 {
  %4 = alloca i32, align 4
  %5 = alloca ptr, align 8
  %6 = alloca ptr, align 8
  %7 = alloca ptr, align 8
  %8 = alloca i64, align 8
  %9 = alloca %struct.cbs_st, align 8
  %10 = alloca %struct.cbs_st, align 8
  %11 = alloca %struct.cbs_st, align 8
  %12 = alloca %struct.cbs_st, align 8
  %13 = alloca %struct.cbs_st, align 8
  %14 = alloca i64, align 8
  %15 = alloca i32, align 4
  store ptr %0, ptr %5, align 8, !tbaa !24
  store ptr %1, ptr %6, align 8, !tbaa !11
  store ptr %2, ptr %7, align 8, !tbaa !11
  call void @llvm.lifetime.start.p0(i64 8, ptr %8) #4
  call void @llvm.lifetime.start.p0(i64 16, ptr %9) #4
  call void @llvm.lifetime.start.p0(i64 16, ptr %10) #4
  call void @llvm.lifetime.start.p0(i64 16, ptr %11) #4
  call void @llvm.lifetime.start.p0(i64 16, ptr %12) #4
  call void @llvm.lifetime.start.p0(i64 16, ptr %13) #4
  call void @llvm.lifetime.start.p0(i64 8, ptr %14) #4
  %16 = load ptr, ptr %5, align 8, !tbaa !24
  store ptr null, ptr %16, align 8, !tbaa !13
  %17 = load ptr, ptr %7, align 8, !tbaa !11
  %18 = load ptr, ptr %5, align 8, !tbaa !24
  %19 = call i32 @CBS_asn1_ber_to_der(ptr noundef %17, ptr noundef %18, ptr noundef %8)
  %20 = icmp ne i32 %19, 0
  br i1 %20, label %22, label %21

21:                                               ; preds = %3
  store i32 0, ptr %4, align 4
  store i32 1, ptr %15, align 4
  br label %79

22:                                               ; preds = %3
  %23 = load ptr, ptr %5, align 8, !tbaa !24
  %24 = load ptr, ptr %23, align 8, !tbaa !13
  %25 = icmp ne ptr %24, null
  br i1 %25, label %26, label %30

26:                                               ; preds = %22
  %27 = load ptr, ptr %5, align 8, !tbaa !24
  %28 = load ptr, ptr %27, align 8, !tbaa !13
  %29 = load i64, ptr %8, align 8, !tbaa !17
  call void @CBS_init(ptr noundef %9, ptr noundef %28, i64 noundef %29)
  br label %35

30:                                               ; preds = %22
  %31 = load ptr, ptr %7, align 8, !tbaa !11
  %32 = call ptr @CBS_data(ptr noundef %31)
  %33 = load ptr, ptr %7, align 8, !tbaa !11
  %34 = call i64 @CBS_len(ptr noundef %33)
  call void @CBS_init(ptr noundef %9, ptr noundef %32, i64 noundef %34)
  br label %35

35:                                               ; preds = %30, %26
  %36 = call i32 @CBS_get_asn1(ptr noundef %9, ptr noundef %10, i32 noundef 48)
  %37 = icmp ne i32 %36, 0
  br i1 %37, label %38, label %41

38:                                               ; preds = %35
  %39 = call i32 @CBS_get_asn1(ptr noundef %10, ptr noundef %11, i32 noundef 6)
  %40 = icmp ne i32 %39, 0
  br i1 %40, label %42, label %41

41:                                               ; preds = %38, %35
  br label %70

42:                                               ; preds = %38
  %43 = call i32 @OBJ_cbs2nid(ptr noundef %11)
  %44 = icmp ne i32 %43, 22
  br i1 %44, label %45, label %46

45:                                               ; preds = %42
  call void @ERR_put_error(i32 noundef 11, i32 noundef 0, i32 noundef 120, ptr noundef @.str, i32 noundef 61)
  br label %70

46:                                               ; preds = %42
  %47 = call i32 @CBS_get_asn1(ptr noundef %10, ptr noundef %12, i32 noundef 160)
  %48 = icmp ne i32 %47, 0
  br i1 %48, label %49, label %61

49:                                               ; preds = %46
  %50 = call i32 @CBS_get_asn1(ptr noundef %12, ptr noundef %13, i32 noundef 48)
  %51 = icmp ne i32 %50, 0
  br i1 %51, label %52, label %61

52:                                               ; preds = %49
  %53 = call i32 @CBS_get_asn1_uint64(ptr noundef %13, ptr noundef %14)
  %54 = icmp ne i32 %53, 0
  br i1 %54, label %55, label %61

55:                                               ; preds = %52
  %56 = call i32 @CBS_get_asn1(ptr noundef %13, ptr noundef null, i32 noundef 49)
  %57 = icmp ne i32 %56, 0
  br i1 %57, label %58, label %61

58:                                               ; preds = %55
  %59 = call i32 @CBS_get_asn1(ptr noundef %13, ptr noundef null, i32 noundef 48)
  %60 = icmp ne i32 %59, 0
  br i1 %60, label %62, label %61

61:                                               ; preds = %58, %55, %52, %49, %46
  br label %70

62:                                               ; preds = %58
  %63 = load i64, ptr %14, align 8, !tbaa !17
  %64 = icmp ult i64 %63, 1
  br i1 %64, label %65, label %66

65:                                               ; preds = %62
  call void @ERR_put_error(i32 noundef 11, i32 noundef 0, i32 noundef 101, ptr noundef @.str, i32 noundef 76)
  br label %70

66:                                               ; preds = %62
  %67 = load ptr, ptr %6, align 8, !tbaa !11
  %68 = call ptr @CBS_data(ptr noundef %13)
  %69 = call i64 @CBS_len(ptr noundef %13)
  call void @CBS_init(ptr noundef %67, ptr noundef %68, i64 noundef %69)
  store i32 1, ptr %4, align 4
  store i32 1, ptr %15, align 4
  br label %79

70:                                               ; preds = %65, %61, %45, %41
  %71 = load ptr, ptr %5, align 8, !tbaa !24
  %72 = load ptr, ptr %71, align 8, !tbaa !13
  %73 = icmp ne ptr %72, null
  br i1 %73, label %74, label %78

74:                                               ; preds = %70
  %75 = load ptr, ptr %5, align 8, !tbaa !24
  %76 = load ptr, ptr %75, align 8, !tbaa !13
  call void @free(ptr noundef %76) #4
  %77 = load ptr, ptr %5, align 8, !tbaa !24
  store ptr null, ptr %77, align 8, !tbaa !13
  br label %78

78:                                               ; preds = %74, %70
  store i32 0, ptr %4, align 4
  store i32 1, ptr %15, align 4
  br label %79

79:                                               ; preds = %78, %66, %21
  call void @llvm.lifetime.end.p0(i64 8, ptr %14) #4
  call void @llvm.lifetime.end.p0(i64 16, ptr %13) #4
  call void @llvm.lifetime.end.p0(i64 16, ptr %12) #4
  call void @llvm.lifetime.end.p0(i64 16, ptr %11) #4
  call void @llvm.lifetime.end.p0(i64 16, ptr %10) #4
  call void @llvm.lifetime.end.p0(i64 16, ptr %9) #4
  call void @llvm.lifetime.end.p0(i64 8, ptr %8) #4
  %80 = load i32, ptr %4, align 4
  ret i32 %80
}