; Function Attrs: nounwind uwtable
define internal fastcc range(i32 0, 2) i32 @pkcs7_parse_header(ptr noundef nonnull initializes((0, 8)) %0, ptr noundef nonnull %1, ptr noundef %2) unnamed_addr #0 {
  %4 = alloca i64, align 8
  %5 = alloca %struct.cbs_st, align 8
  %6 = alloca %struct.cbs_st, align 8
  %7 = alloca %struct.cbs_st, align 8
  %8 = alloca %struct.cbs_st, align 8
  %9 = alloca %struct.cbs_st, align 8
  %10 = alloca i64, align 8
  call void @llvm.lifetime.start.p0(i64 8, ptr nonnull %4) #4
  call void @llvm.lifetime.start.p0(i64 16, ptr nonnull %5) #4
  call void @llvm.lifetime.start.p0(i64 16, ptr nonnull %6) #4
  call void @llvm.lifetime.start.p0(i64 16, ptr nonnull %7) #4
  call void @llvm.lifetime.start.p0(i64 16, ptr nonnull %8) #4
  call void @llvm.lifetime.start.p0(i64 16, ptr nonnull %9) #4
  call void @llvm.lifetime.start.p0(i64 8, ptr nonnull %10) #4
  store ptr null, ptr %0, align 8, !tbaa !6
  %11 = call i32 @CBS_asn1_ber_to_der(ptr noundef %2, ptr noundef nonnull %0, ptr noundef nonnull %4) #4
  %.not = icmp eq i32 %11, 0
  br i1 %.not, label %46, label %12

12:                                               ; preds = %3
  %13 = load ptr, ptr %0, align 8, !tbaa !6
  %.not13 = icmp eq ptr %13, null
  br i1 %.not13, label %16, label %14

14:                                               ; preds = %12
  %15 = load i64, ptr %4, align 8, !tbaa !13
  call void @CBS_init(ptr noundef nonnull %5, ptr noundef nonnull %13, i64 noundef %15) #4
  br label %19

16:                                               ; preds = %12
  %17 = call ptr @CBS_data(ptr noundef %2) #4
  %18 = call i64 @CBS_len(ptr noundef %2) #4
  call void @CBS_init(ptr noundef nonnull %5, ptr noundef %17, i64 noundef %18) #4
  br label %19

19:                                               ; preds = %16, %14
  %20 = call i32 @CBS_get_asn1(ptr noundef nonnull %5, ptr noundef nonnull %6, i32 noundef 48) #4
  %.not14 = icmp eq i32 %20, 0
  br i1 %.not14, label %43, label %21

21:                                               ; preds = %19
  %22 = call i32 @CBS_get_asn1(ptr noundef nonnull %6, ptr noundef nonnull %7, i32 noundef 6) #4
  %.not15 = icmp eq i32 %22, 0
  br i1 %.not15, label %43, label %23

23:                                               ; preds = %21
  %24 = call i32 @OBJ_cbs2nid(ptr noundef nonnull %7) #4
  %.not16 = icmp eq i32 %24, 22
  br i1 %.not16, label %26, label %25

25:                                               ; preds = %23
  call void @ERR_put_error(i32 noundef 11, i32 noundef 0, i32 noundef 120, ptr noundef nonnull @.str, i32 noundef 61) #4
  br label %43

26:                                               ; preds = %23
  %27 = call i32 @CBS_get_asn1(ptr noundef nonnull %6, ptr noundef nonnull %8, i32 noundef 160) #4
  %.not17 = icmp eq i32 %27, 0
  br i1 %.not17, label %43, label %28

28:                                               ; preds = %26
  %29 = call i32 @CBS_get_asn1(ptr noundef nonnull %8, ptr noundef nonnull %9, i32 noundef 48) #4
  %.not18 = icmp eq i32 %29, 0
  br i1 %.not18, label %43, label %30

30:                                               ; preds = %28
  %31 = call i32 @CBS_get_asn1_uint64(ptr noundef nonnull %9, ptr noundef nonnull %10) #4
  %.not19 = icmp eq i32 %31, 0
  br i1 %.not19, label %43, label %32

32:                                               ; preds = %30
  %33 = call i32 @CBS_get_asn1(ptr noundef nonnull %9, ptr noundef null, i32 noundef 49) #4
  %.not20 = icmp eq i32 %33, 0
  br i1 %.not20, label %43, label %34

34:                                               ; preds = %32
  %35 = call i32 @CBS_get_asn1(ptr noundef nonnull %9, ptr noundef null, i32 noundef 48) #4
  %.not21 = icmp eq i32 %35, 0
  br i1 %.not21, label %43, label %36

36:                                               ; preds = %34
  %37 = load i64, ptr %10, align 8, !tbaa !13
  %38 = icmp eq i64 %37, 0
  br i1 %38, label %39, label %40

39:                                               ; preds = %36
  call void @ERR_put_error(i32 noundef 11, i32 noundef 0, i32 noundef 101, ptr noundef nonnull @.str, i32 noundef 76) #4
  br label %43

40:                                               ; preds = %36
  %41 = call ptr @CBS_data(ptr noundef nonnull %9) #4
  %42 = call i64 @CBS_len(ptr noundef nonnull %9) #4
  call void @CBS_init(ptr noundef nonnull %1, ptr noundef %41, i64 noundef %42) #4
  br label %46

43:                                               ; preds = %26, %28, %30, %32, %34, %19, %21, %39, %25
  %44 = load ptr, ptr %0, align 8, !tbaa !6
  %.not22 = icmp eq ptr %44, null
  br i1 %.not22, label %46, label %45

45:                                               ; preds = %43
  call void @free(ptr noundef nonnull %44) #4
  store ptr null, ptr %0, align 8, !tbaa !6
  br label %46

46:                                               ; preds = %43, %45, %3, %40
  %.0 = phi i32 [ 1, %40 ], [ 0, %3 ], [ 0, %45 ], [ 0, %43 ]
  call void @llvm.lifetime.end.p0(i64 8, ptr nonnull %10) #4
  call void @llvm.lifetime.end.p0(i64 16, ptr nonnull %9) #4
  call void @llvm.lifetime.end.p0(i64 16, ptr nonnull %8) #4
  call void @llvm.lifetime.end.p0(i64 16, ptr nonnull %7) #4
  call void @llvm.lifetime.end.p0(i64 16, ptr nonnull %6) #4
  call void @llvm.lifetime.end.p0(i64 16, ptr nonnull %5) #4
  call void @llvm.lifetime.end.p0(i64 8, ptr nonnull %4) #4
  ret i32 %.0
}